; Function Attrs: mustprogress nofree norecurse nosync nounwind willreturn memory(read, inaccessiblemem: none) uwtable
define i32 @lv_display_get_physical_vertical_resolution(ptr noundef readonly %0) local_unnamed_addr #6 {
  %2 = icmp eq ptr %0, null
  br i1 %2, label %3, label %.thread

3:                                                ; preds = %1
  %4 = load ptr, ptr getelementptr inbounds nuw (i8, ptr @lv_global, i64 40), align 8, !tbaa !33
  %5 = icmp eq ptr %4, null
  br i1 %5, label %22, label %.thread

.thread:                                          ; preds = %1, %3
  %.014 = phi ptr [ %4, %3 ], [ %0, %1 ]
  %6 = getelementptr inbounds nuw i8, ptr %.014, i64 888
  %7 = load i8, ptr %6, align 8
  %8 = and i8 %7, 7
  switch i8 %8, label %15 [
    i8 1, label %9
    i8 3, label %9
  ]

9:                                                ; preds = %.thread, %.thread
  %10 = getelementptr inbounds nuw i8, ptr %.014, i64 8
  %11 = load i32, ptr %10, align 8, !tbaa !17
  %12 = icmp sgt i32 %11, 0
  br i1 %12, label %22, label %13

13:                                               ; preds = %9
  %14 = load i32, ptr %.014, align 8, !tbaa !3
  br label %22

15:                                               ; preds = %.thread
  %16 = getelementptr inbounds nuw i8, ptr %.014, i64 12
  %17 = load i32, ptr %16, align 4, !tbaa !18
  %18 = icmp sgt i32 %17, 0
  br i1 %18, label %22, label %19

19:                                               ; preds = %15
  %20 = getelementptr inbounds nuw i8, ptr %.014, i64 4
  %21 = load i32, ptr %20, align 4, !tbaa !16
  br label %22

22:                                               ; preds = %19, %15, %13, %9, %3
  %.09 = phi i32 [ 0, %3 ], [ %14, %13 ], [ %11, %9 ], [ %21, %19 ], [ %17, %15 ]
  ret i32 %.09
}